target datalayout = "e-m:e-p270:32:32-p271:32:32-p272:64:64-i64:64-i128:128-f80:128-n8:16:32:64-S128"
target triple = "x86_64-pc-linux-gnu"

%struct.buftag = type { i32, i32, i32, i32, i32 }
%struct.LWLock = type { i16, %struct.pg_atomic_uint32, %struct.proclist_head }
%struct.pg_atomic_uint32 = type { i32 }
%struct.proclist_head = type { i32, i32 }
%struct.BufferDesc = type { %struct.buftag, i32, %struct.pg_atomic_uint32, i32, i32, %struct.LWLock }
%union.BufferDescPadded = type { %struct.BufferDesc, [12 x i8] }

@BufferDescriptors = external global ptr, align 8

; Function Attrs: inlinehint nounwind uwtable
define internal i32 @pg_atomic_read_u32_impl(ptr noundef %0) #3 {
  %2 = alloca ptr, align 8
  store ptr %0, ptr %2, align 8
  %3 = load ptr, ptr %2, align 8
  %4 = getelementptr inbounds nuw %struct.pg_atomic_uint32, ptr %3, i32 0, i32 0
  %5 = load volatile i32, ptr %4, align 4
  ret i32 %5
}

; Function Attrs: inlinehint nounwind uwtable
define internal i32 @pg_atomic_read_u32(ptr noundef %0) #3 {
  %2 = alloca ptr, align 8
  store ptr %0, ptr %2, align 8
  %3 = load ptr, ptr %2, align 8
  %4 = call i32 @pg_atomic_read_u32_impl(ptr noundef %3)
  ret i32 %4
}

; Function Attrs: inlinehint nounwind uwtable
define internal ptr @GetBufferDescriptor(i32 noundef %0) #3 {
  %2 = alloca i32, align 4
  store i32 %0, ptr %2, align 4
  %3 = load ptr, ptr @BufferDescriptors, align 8
  %4 = load i32, ptr %2, align 4
  %5 = zext i32 %4 to i64
  %6 = getelementptr inbounds nuw %union.BufferDescPadded, ptr %3, i64 %5
  ret ptr %6
}

; Function Attrs: nounwind uwtable
define dso_local zeroext i1 @BufferIsPermanent(i32 noundef %0) #0 {
  %2 = alloca i1, align 1
  %3 = alloca i32, align 4
  %4 = alloca ptr, align 8
  %5 = alloca i32, align 4
  store i32 %0, ptr %3, align 4
  call void @llvm.lifetime.start.p0(i64 8, ptr %4) #10
  %6 = load i32, ptr %3, align 4
  %7 = icmp slt i32 %6, 0
  br i1 %7, label %8, label %9

8:                                                ; preds = %1
  store i1 false, ptr %2, align 1
  store i32 1, ptr %5, align 4
  br label %18

9:                                                ; preds = %1
  %10 = load i32, ptr %3, align 4
  %11 = sub i32 %10, 1
  %12 = call ptr @GetBufferDescriptor(i32 noundef %11)
  store ptr %12, ptr %4, align 8
  %13 = load ptr, ptr %4, align 8
  %14 = getelementptr inbounds nuw %struct.BufferDesc, ptr %13, i32 0, i32 2
  %15 = call i32 @pg_atomic_read_u32(ptr noundef %14)
  %16 = and i32 %15, -2147483648
  %17 = icmp ne i32 %16, 0
  store i1 %17, ptr %2, align 1
  store i32 1, ptr %5, align 4
  br label %18

18:                                               ; preds = %9, %8
  call void @llvm.lifetime.end.p0(i64 8, ptr %4) #10
  %19 = load i1, ptr %2, align 1
  ret i1 %19
}