; Function Attrs: mustprogress nofree norecurse nounwind willreturn uwtable
define dso_local zeroext i1 @BufferIsPermanent(i32 noundef %0) local_unnamed_addr #8 {
  %2 = icmp slt i32 %0, 0
  br i1 %2, label %10, label %3

3:                                                ; preds = %1
  %4 = add nsw i32 %0, -1
  %5 = load ptr, ptr @BufferDescriptors, align 8
  %6 = zext i32 %4 to i64
  %7 = getelementptr inbounds nuw %union.BufferDescPadded, ptr %5, i64 %6, i32 0, i32 2
  %8 = load volatile i32, ptr %7, align 4
  %9 = icmp slt i32 %8, 0
  br label %10

10:                                               ; preds = %1, %3
  %.0 = phi i1 [ %9, %3 ], [ false, %1 ]
  ret i1 %.0
}